; Function Attrs: nounwind uwtable
define dso_local range(i32 -1, 2) i32 @main() local_unnamed_addr #0 {
  %1 = alloca ptr, align 8
  %2 = alloca double, align 8
  %3 = alloca ptr, align 8
  call void @llvm.lifetime.start.p0(i64 8, ptr nonnull %1) #7
  call void @llvm.lifetime.start.p0(i64 8, ptr nonnull %2) #7
  call void @llvm.lifetime.start.p0(i64 8, ptr nonnull %3) #7
  store double 0.000000e+00, ptr %2, align 8, !tbaa !4
  %puts = tail call i32 @puts(ptr nonnull dereferenceable(1) @str)
  %puts14 = tail call i32 @puts(ptr nonnull dereferenceable(1) @str.1)
  %puts15 = tail call i32 @puts(ptr nonnull dereferenceable(1) @str.2)
  %puts16 = tail call i32 @puts(ptr nonnull dereferenceable(1) @str.3)
  %puts17 = tail call i32 @puts(ptr nonnull dereferenceable(1) @str.4)
  %puts18 = tail call i32 @puts(ptr nonnull dereferenceable(1) @str.5)
  %puts19 = tail call i32 @puts(ptr nonnull dereferenceable(1) @str.6)
  %puts20 = tail call i32 @puts(ptr nonnull dereferenceable(1) @str.7)
  %puts21 = tail call i32 @puts(ptr nonnull dereferenceable(1) @str.8)
  %4 = call i32 @SUNContext_Create(i32 noundef 0, ptr noundef nonnull %1) #7
  %5 = icmp slt i32 %4, 0
  br i1 %5, label %check_retval.exit, label %8

check_retval.exit:                                ; preds = %0
  %6 = load ptr, ptr @stderr, align 8, !tbaa !8
  %7 = call i32 (ptr, ptr, ...) @fprintf(ptr noundef %6, ptr noundef nonnull @.str.23, ptr noundef nonnull @.str.9, i32 noundef %4) #8
  br label %62

8:                                                ; preds = %0
  %9 = load ptr, ptr %1, align 8, !tbaa !11
  %10 = call ptr @N_VNew_Serial(i64 noundef 3, ptr noundef %9) #7
  %11 = icmp eq ptr %10, null
  br i1 %11, label %check_retval.exit30, label %14

check_retval.exit30:                              ; preds = %8
  %12 = load ptr, ptr @stderr, align 8, !tbaa !8
  %13 = call i32 (ptr, ptr, ...) @fprintf(ptr noundef %12, ptr noundef nonnull @.str.22, ptr noundef nonnull @.str.10) #8
  br label %62

14:                                               ; preds = %8
  %15 = load ptr, ptr %1, align 8, !tbaa !11
  %16 = call ptr @N_VNew_Serial(i64 noundef 3, ptr noundef %15) #7
  %17 = icmp eq ptr %16, null
  br i1 %17, label %check_retval.exit32, label %20

check_retval.exit32:                              ; preds = %14
  %18 = load ptr, ptr @stderr, align 8, !tbaa !8
  %19 = call i32 (ptr, ptr, ...) @fprintf(ptr noundef %18, ptr noundef nonnull @.str.22, ptr noundef nonnull @.str.10) #8
  br label %62

20:                                               ; preds = %14
  %21 = load ptr, ptr %1, align 8, !tbaa !11
  %22 = call ptr @KINCreate(ptr noundef %21) #7
  store ptr %22, ptr %3, align 8, !tbaa !13
  %23 = icmp eq ptr %22, null
  br i1 %23, label %check_retval.exit34, label %26

check_retval.exit34:                              ; preds = %20
  %24 = load ptr, ptr @stderr, align 8, !tbaa !8
  %25 = call i32 (ptr, ptr, ...) @fprintf(ptr noundef %24, ptr noundef nonnull @.str.22, ptr noundef nonnull @.str.11) #8
  br label %62

26:                                               ; preds = %20
  %27 = call i32 @KINSetMAA(ptr noundef nonnull %22, i64 noundef 2) #7
  %28 = call i32 @KINInit(ptr noundef nonnull %22, ptr noundef nonnull @funcRoberts, ptr noundef nonnull %10) #7
  %29 = icmp slt i32 %28, 0
  br i1 %29, label %check_retval.exit36, label %32

check_retval.exit36:                              ; preds = %26
  %30 = load ptr, ptr @stderr, align 8, !tbaa !8
  %31 = call i32 (ptr, ptr, ...) @fprintf(ptr noundef %30, ptr noundef nonnull @.str.23, ptr noundef nonnull @.str.12, i32 noundef %28) #8
  br label %62

32:                                               ; preds = %26
  %33 = call i32 @KINSetFuncNormTol(ptr noundef nonnull %22, double noundef 1.000000e-10) #7
  %34 = icmp slt i32 %33, 0
  br i1 %34, label %check_retval.exit38, label %37

check_retval.exit38:                              ; preds = %32
  %35 = load ptr, ptr @stderr, align 8, !tbaa !8
  %36 = call i32 (ptr, ptr, ...) @fprintf(ptr noundef %35, ptr noundef nonnull @.str.23, ptr noundef nonnull @.str.13, i32 noundef %33) #8
  br label %62

37:                                               ; preds = %32
  call void @N_VConst(double noundef 0.000000e+00, ptr noundef nonnull %10) #7
  %38 = load ptr, ptr %10, align 8, !tbaa !14
  %39 = getelementptr inbounds nuw i8, ptr %38, i64 16
  %40 = load ptr, ptr %39, align 8, !tbaa !17
  store double 1.000000e+00, ptr %40, align 8, !tbaa !4
  call void @N_VConst(double noundef 1.000000e+00, ptr noundef nonnull %16) #7
  %41 = call i32 @KINSol(ptr noundef nonnull %22, ptr noundef nonnull %10, i32 noundef 3, ptr noundef nonnull %16, ptr noundef nonnull %16) #7
  %42 = icmp slt i32 %41, 0
  br i1 %42, label %check_retval.exit40, label %45

check_retval.exit40:                              ; preds = %37
  %43 = load ptr, ptr @stderr, align 8, !tbaa !8
  %44 = call i32 (ptr, ptr, ...) @fprintf(ptr noundef %43, ptr noundef nonnull @.str.23, ptr noundef nonnull @.str.14, i32 noundef %41) #8
  br label %62

45:                                               ; preds = %37
  %46 = call i32 @KINGetFuncNorm(ptr noundef nonnull %22, ptr noundef nonnull %2) #7
  %47 = icmp slt i32 %46, 0
  br i1 %47, label %check_retval.exit42, label %50

check_retval.exit42:                              ; preds = %45
  %48 = load ptr, ptr @stderr, align 8, !tbaa !8
  %49 = call i32 (ptr, ptr, ...) @fprintf(ptr noundef %48, ptr noundef nonnull @.str.23, ptr noundef nonnull @.str.15, i32 noundef %46) #8
  br label %62

50:                                               ; preds = %45
  %51 = load double, ptr %2, align 8, !tbaa !4
  %52 = call i32 (ptr, ...) @printf(ptr noundef nonnull dereferenceable(1) @.str.16, double noundef %51)
  %.val = load ptr, ptr %10, align 8, !tbaa !14
  %53 = getelementptr i8, ptr %.val, i64 16
  %.val.val = load ptr, ptr %53, align 8, !tbaa !17
  %54 = load double, ptr %.val.val, align 8, !tbaa !4
  %55 = getelementptr inbounds nuw i8, ptr %.val.val, i64 8
  %56 = load double, ptr %55, align 8, !tbaa !4
  %57 = getelementptr inbounds nuw i8, ptr %.val.val, i64 16
  %58 = load double, ptr %57, align 8, !tbaa !4
  %59 = call i32 (ptr, ...) @printf(ptr noundef nonnull dereferenceable(1) @.str.17, double noundef %54, double noundef %56, double noundef %58)
  call fastcc void @PrintFinalStats(ptr noundef nonnull %22)
  %60 = call fastcc i32 @check_ans(ptr noundef nonnull %10)
  call void @N_VDestroy(ptr noundef nonnull %10) #7
  call void @N_VDestroy(ptr noundef nonnull %16) #7
  call void @KINFree(ptr noundef nonnull %3) #7
  %61 = call i32 @SUNContext_Free(ptr noundef nonnull %1) #7
  br label %62

62:                                               ; preds = %check_retval.exit42, %check_retval.exit40, %check_retval.exit38, %check_retval.exit36, %check_retval.exit34, %check_retval.exit32, %check_retval.exit30, %check_retval.exit, %50
  %.0 = phi i32 [ %60, %50 ], [ 1, %check_retval.exit ], [ 1, %check_retval.exit30 ], [ 1, %check_retval.exit32 ], [ 1, %check_retval.exit34 ], [ 1, %check_retval.exit36 ], [ 1, %check_retval.exit38 ], [ 1, %check_retval.exit40 ], [ 1, %check_retval.exit42 ]
  call void @llvm.lifetime.end.p0(i64 8, ptr nonnull %3) #7
  call void @llvm.lifetime.end.p0(i64 8, ptr nonnull %2) #7
  call void @llvm.lifetime.end.p0(i64 8, ptr nonnull %1) #7
  ret i32 %.0
}